target datalayout = "e-m:e-p270:32:32-p271:32:32-p272:64:64-i64:64-i128:128-f80:128-n8:16:32:64-S128"
target triple = "x86_64-pc-linux-gnu"

%class.PtrQueueSet = type { ptr, ptr }
%class.BufferNode = type { i32, i32, ptr, [1 x ptr] }
%class.G1RedirtyCardsQueueSet = type { %class.PtrQueueSet, [128 x i8], %class.LockFreeStack, [120 x i8], i64, [120 x i8], ptr }
%class.LockFreeStack = type { ptr }

; Function Attrs: mustprogress nounwind uwtable
define linkonce_odr hidden noundef ptr @_ZNK10BufferNode4nextEv(ptr noundef nonnull align 8 dereferenceable(24) %0) #1 comdat align 2 {
  %2 = alloca ptr, align 8
  store ptr %0, ptr %2, align 8
  %3 = load ptr, ptr %2, align 8
  %4 = getelementptr inbounds %class.BufferNode, ptr %3, i32 0, i32 2
  %5 = load volatile ptr, ptr %4, align 8
  ret ptr %5
}

; Function Attrs: mustprogress nounwind uwtable
define hidden void @_ZN22G1RedirtyCardsQueueSet11update_tailEP10BufferNode(ptr noundef nonnull align 8 dereferenceable(408) %0, ptr noundef %1) #1 align 2 {
  %3 = alloca ptr, align 8
  %4 = alloca ptr, align 8
  store ptr %0, ptr %3, align 8
  store ptr %1, ptr %4, align 8
  %5 = load ptr, ptr %3, align 8
  %6 = load ptr, ptr %4, align 8
  %7 = call noundef ptr @_ZNK10BufferNode4nextEv(ptr noundef nonnull align 8 dereferenceable(24) %6)
  %8 = icmp eq ptr %7, null
  br i1 %8, label %9, label %12

9:                                                ; preds = %2
  %10 = load ptr, ptr %4, align 8
  %11 = getelementptr inbounds %class.G1RedirtyCardsQueueSet, ptr %5, i32 0, i32 6
  store ptr %10, ptr %11, align 8
  br label %12

12:                                               ; preds = %9, %2
  ret void
}