; Function Attrs: mustprogress nofree norecurse nounwind willreturn memory(argmem: readwrite, inaccessiblemem: readwrite) uwtable
define hidden void @_ZN22G1RedirtyCardsQueueSet11update_tailEP10BufferNode(ptr nocapture noundef nonnull writeonly align 8 dereferenceable(408) %0, ptr noundef %1) local_unnamed_addr #5 align 2 {
  %3 = getelementptr inbounds i8, ptr %1, i64 8
  %4 = load volatile ptr, ptr %3, align 8
  %5 = icmp eq ptr %4, null
  br i1 %5, label %6, label %8

6:                                                ; preds = %2
  %7 = getelementptr inbounds i8, ptr %0, i64 400
  store ptr %1, ptr %7, align 8
  br label %8

8:                                                ; preds = %6, %2
  ret void
}